
hello.elf:     Dateiformat elf32-littleriscv


Disassembly of section .text:

ffff8100 <tvec_user>:
ffff8100:	0c00006f          	j	ffff81c0 <tvec_machine>
ffff8104:	00000013          	nop
ffff8108:	00000013          	nop
ffff810c:	00000013          	nop
ffff8110:	00000013          	nop
ffff8114:	00000013          	nop
ffff8118:	00000013          	nop
ffff811c:	00000013          	nop
ffff8120:	00000013          	nop
ffff8124:	00000013          	nop
ffff8128:	00000013          	nop
ffff812c:	00000013          	nop
ffff8130:	00000013          	nop
ffff8134:	00000013          	nop
ffff8138:	00000013          	nop
ffff813c:	00000013          	nop

ffff8140 <tvec_supervisor>:
ffff8140:	0800006f          	j	ffff81c0 <tvec_machine>
ffff8144:	00000013          	nop
ffff8148:	00000013          	nop
ffff814c:	00000013          	nop
ffff8150:	00000013          	nop
ffff8154:	00000013          	nop
ffff8158:	00000013          	nop
ffff815c:	00000013          	nop
ffff8160:	00000013          	nop
ffff8164:	00000013          	nop
ffff8168:	00000013          	nop
ffff816c:	00000013          	nop
ffff8170:	00000013          	nop
ffff8174:	00000013          	nop
ffff8178:	00000013          	nop
ffff817c:	00000013          	nop

ffff8180 <tvec_hypervisor>:
ffff8180:	0400006f          	j	ffff81c0 <tvec_machine>
ffff8184:	00000013          	nop
ffff8188:	00000013          	nop
ffff818c:	00000013          	nop
ffff8190:	00000013          	nop
ffff8194:	00000013          	nop
ffff8198:	00000013          	nop
ffff819c:	00000013          	nop
ffff81a0:	00000013          	nop
ffff81a4:	00000013          	nop
ffff81a8:	00000013          	nop
ffff81ac:	00000013          	nop
ffff81b0:	00000013          	nop
ffff81b4:	00000013          	nop
ffff81b8:	00000013          	nop
ffff81bc:	00000013          	nop

ffff81c0 <tvec_machine>:
ffff81c0:	0a80006f          	j	ffff8268 <_machine_exception_handler>
ffff81c4:	00000013          	nop
ffff81c8:	00000013          	nop
ffff81cc:	00000013          	nop
ffff81d0:	00000013          	nop
ffff81d4:	00000013          	nop
ffff81d8:	00000013          	nop
ffff81dc:	00000013          	nop
ffff81e0:	00000013          	nop
ffff81e4:	00000013          	nop
ffff81e8:	00000013          	nop
ffff81ec:	00000013          	nop
ffff81f0:	00000013          	nop
ffff81f4:	00000013          	nop
ffff81f8:	00000013          	nop
ffff81fc:	00000013          	nop

ffff8200 <_start>:
ffff8200:	00000097          	auipc	ra,0x0
ffff8204:	f0008093          	addi	ra,ra,-256 # ffff8100 <tvec_user>
ffff8208:	30509073          	csrw	mtvec,ra

ffff820c <copy_data>:
ffff820c:	00000097          	auipc	ra,0x0
ffff8210:	1b408093          	addi	ra,ra,436 # ffff83c0 <__text_end>
ffff8214:	00004117          	auipc	sp,0x4
ffff8218:	dec10113          	addi	sp,sp,-532 # ffffc000 <__data_begin>
ffff821c:	00004197          	auipc	gp,0x4
ffff8220:	df418193          	addi	gp,gp,-524 # ffffc010 <__data_end>
ffff8224:	00310c63          	beq	sp,gp,ffff823c <clear_bss>
ffff8228:	0000a203          	lw	tp,0(ra)
ffff822c:	00412023          	sw	tp,0(sp)
ffff8230:	00408093          	addi	ra,ra,4
ffff8234:	00410113          	addi	sp,sp,4
ffff8238:	fe3118e3          	bne	sp,gp,ffff8228 <copy_data+0x1c>

ffff823c <clear_bss>:
ffff823c:	00004097          	auipc	ra,0x4
ffff8240:	dd408093          	addi	ra,ra,-556 # ffffc010 <__data_end>
ffff8244:	00004117          	auipc	sp,0x4
ffff8248:	dd010113          	addi	sp,sp,-560 # ffffc014 <__bss_end>
ffff824c:	00208863          	beq	ra,sp,ffff825c <init_stack>
ffff8250:	0000a023          	sw	zero,0(ra)
ffff8254:	00408093          	addi	ra,ra,4
ffff8258:	fe209ce3          	bne	ra,sp,ffff8250 <clear_bss+0x14>

ffff825c <init_stack>:
ffff825c:	00214133          	xor	sp,sp,sp

ffff8260 <call_main>:
ffff8260:	11c000ef          	jal	ffff837c <main>
ffff8264:	0000006f          	j	ffff8264 <call_main+0x4>

ffff8268 <_machine_exception_handler>:
ffff8268:	f8410113          	addi	sp,sp,-124
ffff826c:	00112023          	sw	ra,0(sp)
ffff8270:	00212223          	sw	sp,4(sp)
ffff8274:	00312423          	sw	gp,8(sp)
ffff8278:	00412623          	sw	tp,12(sp)
ffff827c:	00512823          	sw	t0,16(sp)
ffff8280:	00612a23          	sw	t1,20(sp)
ffff8284:	00712c23          	sw	t2,24(sp)
ffff8288:	00812e23          	sw	s0,28(sp)
ffff828c:	02912023          	sw	s1,32(sp)
ffff8290:	02a12223          	sw	a0,36(sp)
ffff8294:	02b12423          	sw	a1,40(sp)
ffff8298:	02c12623          	sw	a2,44(sp)
ffff829c:	02d12823          	sw	a3,48(sp)
ffff82a0:	02e12a23          	sw	a4,52(sp)
ffff82a4:	02f12c23          	sw	a5,56(sp)
ffff82a8:	03012e23          	sw	a6,60(sp)
ffff82ac:	05112023          	sw	a7,64(sp)
ffff82b0:	05212223          	sw	s2,68(sp)
ffff82b4:	05312423          	sw	s3,72(sp)
ffff82b8:	05412623          	sw	s4,76(sp)
ffff82bc:	05512823          	sw	s5,80(sp)
ffff82c0:	05612a23          	sw	s6,84(sp)
ffff82c4:	05712c23          	sw	s7,88(sp)
ffff82c8:	05812e23          	sw	s8,92(sp)
ffff82cc:	07912023          	sw	s9,96(sp)
ffff82d0:	07a12223          	sw	s10,100(sp)
ffff82d4:	07b12423          	sw	s11,104(sp)
ffff82d8:	07c12623          	sw	t3,108(sp)
ffff82dc:	07d12823          	sw	t4,112(sp)
ffff82e0:	07e12a23          	sw	t5,116(sp)
ffff82e4:	07f12c23          	sw	t6,120(sp)
ffff82e8:	34202573          	csrr	a0,mcause
ffff82ec:	341025f3          	csrr	a1,mepc
ffff82f0:	00010613          	mv	a2,sp
ffff82f4:	084000ef          	jal	ffff8378 <exception_handler>

ffff82f8 <_machine_exception_return>:
ffff82f8:	00012083          	lw	ra,0(sp)
ffff82fc:	00812183          	lw	gp,8(sp)
ffff8300:	00c12203          	lw	tp,12(sp)
ffff8304:	01012283          	lw	t0,16(sp)
ffff8308:	01412303          	lw	t1,20(sp)
ffff830c:	01812383          	lw	t2,24(sp)
ffff8310:	01c12403          	lw	s0,28(sp)
ffff8314:	02012483          	lw	s1,32(sp)
ffff8318:	02412503          	lw	a0,36(sp)
ffff831c:	02812583          	lw	a1,40(sp)
ffff8320:	02c12603          	lw	a2,44(sp)
ffff8324:	03012683          	lw	a3,48(sp)
ffff8328:	03412703          	lw	a4,52(sp)
ffff832c:	03812783          	lw	a5,56(sp)
ffff8330:	03c12803          	lw	a6,60(sp)
ffff8334:	04012883          	lw	a7,64(sp)
ffff8338:	04412903          	lw	s2,68(sp)
ffff833c:	04812983          	lw	s3,72(sp)
ffff8340:	04c12a03          	lw	s4,76(sp)
ffff8344:	05012a83          	lw	s5,80(sp)
ffff8348:	05412b03          	lw	s6,84(sp)
ffff834c:	05812b83          	lw	s7,88(sp)
ffff8350:	05c12c03          	lw	s8,92(sp)
ffff8354:	06012c83          	lw	s9,96(sp)
ffff8358:	06412d03          	lw	s10,100(sp)
ffff835c:	06812d83          	lw	s11,104(sp)
ffff8360:	06c12e03          	lw	t3,108(sp)
ffff8364:	07012e83          	lw	t4,112(sp)
ffff8368:	07412f03          	lw	t5,116(sp)
ffff836c:	07812f83          	lw	t6,120(sp)
ffff8370:	07c10113          	addi	sp,sp,124
ffff8374:	00008067          	ret

ffff8378 <exception_handler>:
ffff8378:	00008067          	ret

ffff837c <main>:
ffff837c:	c00027b7          	lui	a5,0xc0002
ffff8380:	ffffc737          	lui	a4,0xffffc
ffff8384:	00f72823          	sw	a5,16(a4) # ffffc010 <__bss_end+0xfffffffc>
ffff8388:	01000713          	li	a4,16
ffff838c:	00e7a623          	sw	a4,12(a5) # c000200c <__bss_end+0xc0005ff8>
ffff8390:	ffffc737          	lui	a4,0xffffc
ffff8394:	00070713          	mv	a4,a4
ffff8398:	00074603          	lbu	a2,0(a4) # ffffc000 <__bss_end+0xffffffec>
ffff839c:	00061663          	bnez	a2,ffff83a8 <main+0x2c>
ffff83a0:	00000513          	li	a0,0
ffff83a4:	00008067          	ret
ffff83a8:	0087a683          	lw	a3,8(a5)
ffff83ac:	0086f693          	andi	a3,a3,8
ffff83b0:	fe069ce3          	bnez	a3,ffff83a8 <main+0x2c>
ffff83b4:	00c7a023          	sw	a2,0(a5)
ffff83b8:	00170713          	addi	a4,a4,1
ffff83bc:	fddff06f          	j	ffff8398 <main+0x1c>
